target datalayout = "e-m:e-p270:32:32-p271:32:32-p272:64:64-i64:64-i128:128-f80:128-n8:16:32:64-S128"
target triple = "x86_64-pc-linux-gnu"

%struct.pkcs12_enc = type { i32, ptr, i32 }

@mac_default = internal constant { i32, [4 x i8], ptr, i32, [4 x i8] } { i32 64, [4 x i8] zeroinitializer, ptr @.str.47, i32 1000, [4 x i8] zeroinitializer }, align 8
@iters = internal constant [2 x i32] [i32 1, i32 1000], align 4

; Function Attrs: nounwind uwtable
define internal i32 @test_single_cert_mac_iter(i32 noundef %0) #0 {
  %2 = alloca i32, align 4
  %3 = alloca %struct.pkcs12_enc, align 8
  store i32 %0, ptr %2, align 4, !tbaa !4
  call void @llvm.lifetime.start.p0(i64 24, ptr %3) #4
  %4 = getelementptr inbounds nuw %struct.pkcs12_enc, ptr %3, i32 0, i32 0
  store i32 64, ptr %4, align 8, !tbaa !17
  %5 = load ptr, ptr getelementptr inbounds nuw (%struct.pkcs12_enc, ptr @mac_default, i32 0, i32 1), align 8, !tbaa !20
  %6 = getelementptr inbounds nuw %struct.pkcs12_enc, ptr %3, i32 0, i32 1
  store ptr %5, ptr %6, align 8, !tbaa !20
  %7 = load i32, ptr %2, align 4, !tbaa !4
  %8 = sext i32 %7 to i64
  %9 = getelementptr inbounds [2 x i32], ptr @iters, i64 0, i64 %8
  %10 = load i32, ptr %9, align 4, !tbaa !4
  %11 = getelementptr inbounds nuw %struct.pkcs12_enc, ptr %3, i32 0, i32 2
  store i32 %10, ptr %11, align 8, !tbaa !21
  %12 = call i32 @test_single_cert_mac(ptr noundef %3)
  call void @llvm.lifetime.end.p0(i64 24, ptr %3) #4
  ret i32 %12
}